target datalayout = "e-m:e-p270:32:32-p271:32:32-p272:64:64-i64:64-i128:128-f80:128-n8:16:32:64-S128"
target triple = "x86_64-pc-linux-gnu"

%struct.SlruCtlData = type { ptr, i16, i8, i32, ptr, [64 x i8] }
%struct.pg_atomic_uint64 = type { i64 }
%struct.pg_atomic_uint32 = type { i32 }
%struct.LWLock = type { i16, %struct.pg_atomic_uint32, %struct.proclist_head }
%struct.proclist_head = type { i32, i32 }
%struct.SlruSharedData = type { i32, ptr, ptr, ptr, ptr, ptr, ptr, ptr, ptr, ptr, i32, %struct.pg_atomic_uint64, i32 }
%union.LWLockPadded = type { %struct.LWLock, [112 x i8] }

@XactCtlData = internal global %struct.SlruCtlData zeroinitializer, align 8

; Function Attrs: inlinehint nounwind uwtable
define internal ptr @SimpleLruGetBankLock(ptr noundef %0, i64 noundef %1) #2 {
  %3 = alloca ptr, align 8
  %4 = alloca i64, align 8
  %5 = alloca i32, align 4
  store ptr %0, ptr %3, align 8
  store i64 %1, ptr %4, align 8
  call void @llvm.lifetime.start.p0(i64 4, ptr %5) #8
  %6 = load i64, ptr %4, align 8
  %7 = load ptr, ptr %3, align 8
  %8 = getelementptr inbounds nuw %struct.SlruCtlData, ptr %7, i32 0, i32 1
  %9 = load i16, ptr %8, align 8
  %10 = zext i16 %9 to i64
  %11 = srem i64 %6, %10
  %12 = trunc i64 %11 to i32
  store i32 %12, ptr %5, align 4
  %13 = load ptr, ptr %3, align 8
  %14 = getelementptr inbounds nuw %struct.SlruCtlData, ptr %13, i32 0, i32 0
  %15 = load ptr, ptr %14, align 8
  %16 = getelementptr inbounds nuw %struct.SlruSharedData, ptr %15, i32 0, i32 7
  %17 = load ptr, ptr %16, align 8
  %18 = load i32, ptr %5, align 4
  %19 = sext i32 %18 to i64
  %20 = getelementptr inbounds %union.LWLockPadded, ptr %17, i64 %19
  call void @llvm.lifetime.end.p0(i64 4, ptr %5) #8
  ret ptr %20
}

; Function Attrs: inlinehint nounwind uwtable
define internal i64 @TransactionIdToPage(i32 noundef %0) #2 {
  %2 = alloca i32, align 4
  store i32 %0, ptr %2, align 4
  %3 = load i32, ptr %2, align 4
  %4 = zext i32 %3 to i64
  %5 = sdiv i64 %4, 32768
  ret i64 %5
}

; Function Attrs: nounwind uwtable
define dso_local i32 @TransactionIdGetStatus(i32 noundef %0, ptr noundef %1) #0 {
  %3 = alloca i32, align 4
  %4 = alloca ptr, align 8
  %5 = alloca i64, align 8
  %6 = alloca i32, align 4
  %7 = alloca i32, align 4
  %8 = alloca i32, align 4
  %9 = alloca i32, align 4
  %10 = alloca ptr, align 8
  %11 = alloca i32, align 4
  store i32 %0, ptr %3, align 4
  store ptr %1, ptr %4, align 8
  call void @llvm.lifetime.start.p0(i64 8, ptr %5) #8
  %12 = load i32, ptr %3, align 4
  %13 = call i64 @TransactionIdToPage(i32 noundef %12)
  store i64 %13, ptr %5, align 8
  call void @llvm.lifetime.start.p0(i64 4, ptr %6) #8
  %14 = load i32, ptr %3, align 4
  %15 = urem i32 %14, 32768
  %16 = udiv i32 %15, 4
  store i32 %16, ptr %6, align 4
  call void @llvm.lifetime.start.p0(i64 4, ptr %7) #8
  %17 = load i32, ptr %3, align 4
  %18 = urem i32 %17, 4
  %19 = mul i32 %18, 2
  store i32 %19, ptr %7, align 4
  call void @llvm.lifetime.start.p0(i64 4, ptr %8) #8
  call void @llvm.lifetime.start.p0(i64 4, ptr %9) #8
  call void @llvm.lifetime.start.p0(i64 8, ptr %10) #8
  call void @llvm.lifetime.start.p0(i64 4, ptr %11) #8
  %20 = load i64, ptr %5, align 8
  %21 = load i32, ptr %3, align 4
  %22 = call i32 @SimpleLruReadPage_ReadOnly(ptr noundef @XactCtlData, i64 noundef %20, i32 noundef %21)
  store i32 %22, ptr %8, align 4
  %23 = load ptr, ptr @XactCtlData, align 8
  %24 = getelementptr inbounds nuw %struct.SlruSharedData, ptr %23, i32 0, i32 1
  %25 = load ptr, ptr %24, align 8
  %26 = load i32, ptr %8, align 4
  %27 = sext i32 %26 to i64
  %28 = getelementptr inbounds ptr, ptr %25, i64 %27
  %29 = load ptr, ptr %28, align 8
  %30 = load i32, ptr %6, align 4
  %31 = sext i32 %30 to i64
  %32 = getelementptr inbounds i8, ptr %29, i64 %31
  store ptr %32, ptr %10, align 8
  %33 = load ptr, ptr %10, align 8
  %34 = load i8, ptr %33, align 1
  %35 = sext i8 %34 to i32
  %36 = load i32, ptr %7, align 4
  %37 = ashr i32 %35, %36
  %38 = and i32 %37, 3
  store i32 %38, ptr %11, align 4
  %39 = load i32, ptr %8, align 4
  %40 = mul i32 %39, 1024
  %41 = load i32, ptr %3, align 4
  %42 = urem i32 %41, 32768
  %43 = udiv i32 %42, 32
  %44 = add i32 %40, %43
  store i32 %44, ptr %9, align 4
  %45 = load ptr, ptr @XactCtlData, align 8
  %46 = getelementptr inbounds nuw %struct.SlruSharedData, ptr %45, i32 0, i32 9
  %47 = load ptr, ptr %46, align 8
  %48 = load i32, ptr %9, align 4
  %49 = sext i32 %48 to i64
  %50 = getelementptr inbounds i64, ptr %47, i64 %49
  %51 = load i64, ptr %50, align 8
  %52 = load ptr, ptr %4, align 8
  store i64 %51, ptr %52, align 8
  %53 = load i64, ptr %5, align 8
  %54 = call ptr @SimpleLruGetBankLock(ptr noundef @XactCtlData, i64 noundef %53)
  call void @LWLockRelease(ptr noundef %54)
  %55 = load i32, ptr %11, align 4
  call void @llvm.lifetime.end.p0(i64 4, ptr %11) #8
  call void @llvm.lifetime.end.p0(i64 8, ptr %10) #8
  call void @llvm.lifetime.end.p0(i64 4, ptr %9) #8
  call void @llvm.lifetime.end.p0(i64 4, ptr %8) #8
  call void @llvm.lifetime.end.p0(i64 4, ptr %7) #8
  call void @llvm.lifetime.end.p0(i64 4, ptr %6) #8
  call void @llvm.lifetime.end.p0(i64 8, ptr %5) #8
  ret i32 %55
}