; Function Attrs: nounwind uwtable
define dso_local range(i32 0, 4) i32 @TransactionIdGetStatus(i32 noundef %0, ptr noundef writeonly captures(none) initializes((0, 8)) %1) local_unnamed_addr #0 {
  %3 = lshr i32 %0, 15
  %4 = zext nneg i32 %3 to i64
  %5 = and i32 %0, 32767
  %6 = lshr i32 %5, 2
  %7 = shl i32 %0, 1
  %8 = and i32 %7, 6
  %9 = tail call i32 @SimpleLruReadPage_ReadOnly(ptr noundef nonnull @XactCtlData, i64 noundef %4, i32 noundef %0) #9
  %10 = load ptr, ptr @XactCtlData, align 8
  %11 = getelementptr inbounds nuw i8, ptr %10, i64 8
  %12 = load ptr, ptr %11, align 8
  %13 = sext i32 %9 to i64
  %14 = getelementptr inbounds ptr, ptr %12, i64 %13
  %15 = load ptr, ptr %14, align 8
  %16 = zext nneg i32 %6 to i64
  %17 = getelementptr inbounds nuw i8, ptr %15, i64 %16
  %18 = load i8, ptr %17, align 1
  %19 = sext i8 %18 to i32
  %20 = ashr i32 %19, %8
  %21 = and i32 %20, 3
  %22 = shl i32 %9, 10
  %23 = lshr i32 %5, 5
  %24 = or disjoint i32 %22, %23
  %25 = getelementptr inbounds nuw i8, ptr %10, i64 72
  %26 = load ptr, ptr %25, align 8
  %27 = sext i32 %24 to i64
  %28 = getelementptr inbounds i64, ptr %26, i64 %27
  %29 = load i64, ptr %28, align 8
  store i64 %29, ptr %1, align 8
  %30 = load i16, ptr getelementptr inbounds nuw (i8, ptr @XactCtlData, i64 8), align 8
  %.rhs.trunc = zext i16 %30 to i32
  %31 = urem i32 %3, %.rhs.trunc
  %32 = load ptr, ptr @XactCtlData, align 8
  %33 = getelementptr inbounds nuw i8, ptr %32, i64 56
  %34 = load ptr, ptr %33, align 8
  %35 = shl nuw nsw i32 %31, 7
  %36 = zext nneg i32 %35 to i64
  %37 = getelementptr inbounds nuw i8, ptr %34, i64 %36
  tail call void @LWLockRelease(ptr noundef %37) #9
  ret i32 %21
}